; Function Attrs: mustprogress uwtable
define dso_local void @_ZN12RandomNumber12RandomDigitsB5cxx11Ei(ptr dead_on_unwind noalias writable sret(%"class.std::__cxx11::basic_string") align 8 %0, ptr nocapture noundef nonnull readonly align 8 dereferenceable(72) %1, i32 noundef %2) unnamed_addr #3 align 2 {
  %4 = getelementptr inbounds i8, ptr %1, i64 8
  %5 = load ptr, ptr %4, align 8
  %6 = load ptr, ptr %5, align 8
  %7 = getelementptr inbounds i8, ptr %6, i64 48
  %8 = load ptr, ptr %7, align 8
  tail call void %8(ptr dead_on_unwind writable sret(%"class.std::__cxx11::basic_string") align 8 %0, ptr noundef nonnull align 8 dereferenceable(8) %5, i32 noundef %2)
  ret void
}